target datalayout = "e-m:e-p270:32:32-p271:32:32-p272:64:64-i64:64-i128:128-f80:128-n8:16:32:64-S128"
target triple = "x86_64-pc-linux-gnu"

%"class.std::ios_base::Init" = type { i8 }
%"class.cv::Mat" = type { i32, i32, i32, i32, ptr, ptr, ptr, ptr, ptr, ptr, %"struct.cv::MatSize", %"struct.cv::MatStep" }
%"struct.cv::MatSize" = type { ptr }
%"struct.cv::MatStep" = type { ptr, [2 x i64] }

@_ZStL8__ioinit = internal global %"class.std::ios_base::Init" zeroinitializer, align 1
@__dso_handle = external hidden global i8
@__const.main.d = private unnamed_addr constant [12 x i8] c"\01\02\03\04\05\06\07\08\09\0A\0B\0C", align 1
@llvm.global_ctors = appending global [1 x { i32, ptr, ptr }] [{ i32, ptr, ptr } { i32 65535, ptr @_GLOBAL__sub_I_core_split.cpp, ptr null }]

; Function Attrs: uwtable
define internal void @__cxx_global_var_init() #0 section ".text.startup" {
  call void @_ZNSt8ios_base4InitC1Ev(ptr noundef nonnull align 1 dereferenceable(1) @_ZStL8__ioinit)
  %1 = call i32 @__cxa_atexit(ptr @_ZNSt8ios_base4InitD1Ev, ptr @_ZStL8__ioinit, ptr @__dso_handle) #3
  ret void
}

declare void @_ZNSt8ios_base4InitC1Ev(ptr noundef nonnull align 1 dereferenceable(1)) unnamed_addr #1

; Function Attrs: nounwind
declare void @_ZNSt8ios_base4InitD1Ev(ptr noundef nonnull align 1 dereferenceable(1)) unnamed_addr #2

; Function Attrs: nounwind
declare i32 @__cxa_atexit(ptr, ptr, ptr) #3

; Function Attrs: mustprogress norecurse uwtable
define hidden noundef i32 @main() #4 personality ptr @__gxx_personality_v0 {
  %1 = alloca i32, align 4
  %2 = alloca [12 x i8], align 1
  %3 = alloca %"class.cv::Mat", align 8
  %4 = alloca [3 x %"class.cv::Mat"], align 16
  %5 = alloca ptr, align 8
  %6 = alloca i32, align 4
  store i32 0, ptr %1, align 4
  call void @llvm.lifetime.start.p0(i64 12, ptr %2) #3
  call void @llvm.memcpy.p0.p0.i64(ptr align 1 %2, ptr align 1 @__const.main.d, i64 12, i1 false)
  call void @llvm.lifetime.start.p0(i64 96, ptr %3) #3
  %7 = getelementptr inbounds [12 x i8], ptr %2, i64 0, i64 0
  call void @_ZN2cv3MatC1EiiiPvm(ptr noundef nonnull align 8 dereferenceable(96) %3, i32 noundef 2, i32 noundef 2, i32 noundef 16, ptr noundef %7, i64 noundef 0)
  call void @llvm.lifetime.start.p0(i64 288, ptr %4) #3
  %8 = getelementptr inbounds [3 x %"class.cv::Mat"], ptr %4, i32 0, i32 0
  %9 = getelementptr inbounds %"class.cv::Mat", ptr %8, i64 3
  br label %10

10:                                               ; preds = %10, %0
  %11 = phi ptr [ %8, %0 ], [ %12, %10 ]
  call void @_ZN2cv3MatC1Ev(ptr noundef nonnull align 8 dereferenceable(96) %11) #3
  %12 = getelementptr inbounds %"class.cv::Mat", ptr %11, i64 1
  %13 = icmp eq ptr %12, %9
  br i1 %13, label %14, label %10

14:                                               ; preds = %10
  %15 = getelementptr inbounds [3 x %"class.cv::Mat"], ptr %4, i64 0, i64 0
  invoke void @_ZN2cv5splitERKNS_3MatEPS0_(ptr noundef nonnull align 8 dereferenceable(96) %3, ptr noundef %15)
          to label %16 unwind label %19

16:                                               ; preds = %14
  store i32 0, ptr %1, align 4
  %17 = getelementptr inbounds [3 x %"class.cv::Mat"], ptr %4, i32 0, i32 0
  %18 = getelementptr inbounds %"class.cv::Mat", ptr %17, i64 3
  br label %25

19:                                               ; preds = %14
  %20 = landingpad { ptr, i32 }
          cleanup
  %21 = extractvalue { ptr, i32 } %20, 0
  store ptr %21, ptr %5, align 8
  %22 = extractvalue { ptr, i32 } %20, 1
  store i32 %22, ptr %6, align 4
  %23 = getelementptr inbounds [3 x %"class.cv::Mat"], ptr %4, i32 0, i32 0
  %24 = getelementptr inbounds %"class.cv::Mat", ptr %23, i64 3
  br label %31

25:                                               ; preds = %25, %16
  %26 = phi ptr [ %18, %16 ], [ %27, %25 ]
  %27 = getelementptr inbounds %"class.cv::Mat", ptr %26, i64 -1
  call void @_ZN2cv3MatD1Ev(ptr noundef nonnull align 8 dereferenceable(96) %27) #3
  %28 = icmp eq ptr %27, %17
  br i1 %28, label %29, label %25

29:                                               ; preds = %25
  call void @llvm.lifetime.end.p0(i64 288, ptr %4) #3
  call void @_ZN2cv3MatD1Ev(ptr noundef nonnull align 8 dereferenceable(96) %3) #3
  call void @llvm.lifetime.end.p0(i64 96, ptr %3) #3
  call void @llvm.lifetime.end.p0(i64 12, ptr %2) #3
  %30 = load i32, ptr %1, align 4
  ret i32 %30

31:                                               ; preds = %31, %19
  %32 = phi ptr [ %24, %19 ], [ %33, %31 ]
  %33 = getelementptr inbounds %"class.cv::Mat", ptr %32, i64 -1
  call void @_ZN2cv3MatD1Ev(ptr noundef nonnull align 8 dereferenceable(96) %33) #3
  %34 = icmp eq ptr %33, %23
  br i1 %34, label %35, label %31

35:                                               ; preds = %31
  call void @llvm.lifetime.end.p0(i64 288, ptr %4) #3
  call void @_ZN2cv3MatD1Ev(ptr noundef nonnull align 8 dereferenceable(96) %3) #3
  call void @llvm.lifetime.end.p0(i64 96, ptr %3) #3
  call void @llvm.lifetime.end.p0(i64 12, ptr %2) #3
  br label %36

36:                                               ; preds = %35
  %37 = load ptr, ptr %5, align 8
  %38 = load i32, ptr %6, align 4
  %39 = insertvalue { ptr, i32 } poison, ptr %37, 0
  %40 = insertvalue { ptr, i32 } %39, i32 %38, 1
  resume { ptr, i32 } %40
}

; Function Attrs: nocallback nofree nosync nounwind willreturn memory(argmem: readwrite)
declare void @llvm.lifetime.start.p0(i64 immarg, ptr captures(none)) #5

; Function Attrs: nocallback nofree nounwind willreturn memory(argmem: readwrite)
declare void @llvm.memcpy.p0.p0.i64(ptr noalias writeonly captures(none), ptr noalias readonly captures(none), i64, i1 immarg) #6

declare void @_ZN2cv3MatC1EiiiPvm(ptr noundef nonnull align 8 dereferenceable(96), i32 noundef, i32 noundef, i32 noundef, ptr noundef, i64 noundef) unnamed_addr #1

; Function Attrs: nounwind
declare void @_ZN2cv3MatC1Ev(ptr noundef nonnull align 8 dereferenceable(96)) unnamed_addr #2

declare void @_ZN2cv5splitERKNS_3MatEPS0_(ptr noundef nonnull align 8 dereferenceable(96), ptr noundef) #1

declare i32 @__gxx_personality_v0(...)

; Function Attrs: nounwind
declare void @_ZN2cv3MatD1Ev(ptr noundef nonnull align 8 dereferenceable(96)) unnamed_addr #2

; Function Attrs: nocallback nofree nosync nounwind willreturn memory(argmem: readwrite)
declare void @llvm.lifetime.end.p0(i64 immarg, ptr captures(none)) #5

; Function Attrs: uwtable
define internal void @_GLOBAL__sub_I_core_split.cpp() #0 section ".text.startup" {
  call void @__cxx_global_var_init()
  ret void
}


!llvm.module.flags = !{!0, !1, !2, !3}

!0 = !{i32 1, !"wchar_size", i32 4}
!1 = !{i32 8, !"PIC Level", i32 2}
!2 = !{i32 7, !"PIE Level", i32 2}
!3 = !{i32 7, !"uwtable", i32 2}
