; ModuleID = 'bench/opencv/original/core_split.ll'
source_filename = "bench/opencv/original/core_split.ll"
target datalayout = "e-m:e-p270:32:32-p271:32:32-p272:64:64-i64:64-i128:128-f80:128-n8:16:32:64-S128"
target triple = "x86_64-pc-linux-gnu"

%"class.std::ios_base::Init" = type { i8 }
%"class.cv::Mat" = type { i32, i32, i32, i32, ptr, ptr, ptr, ptr, ptr, ptr, %"struct.cv::MatSize", %"struct.cv::MatStep" }
%"struct.cv::MatSize" = type { ptr }
%"struct.cv::MatStep" = type { ptr, [2 x i64] }

@_ZStL8__ioinit = internal global %"class.std::ios_base::Init" zeroinitializer, align 1
@__dso_handle = external hidden global i8
@__const.main.d = private unnamed_addr constant [12 x i8] c"\01\02\03\04\05\06\07\08\09\0A\0B\0C", align 1
@llvm.global_ctors = appending global [1 x { i32, ptr, ptr }] [{ i32, ptr, ptr } { i32 65535, ptr @_GLOBAL__sub_I_core_split.cpp, ptr null }]

declare void @_ZNSt8ios_base4InitC1Ev(ptr noundef nonnull align 1 dereferenceable(1)) unnamed_addr #0

; Function Attrs: nounwind
declare void @_ZNSt8ios_base4InitD1Ev(ptr noundef nonnull align 1 dereferenceable(1)) unnamed_addr #1

; Function Attrs: nofree nounwind
declare i32 @__cxa_atexit(ptr, ptr, ptr) local_unnamed_addr #2

; Function Attrs: mustprogress norecurse uwtable
define hidden noundef i32 @main() local_unnamed_addr #3 personality ptr @__gxx_personality_v0 {
  %1 = alloca [12 x i8], align 1
  %2 = alloca %"class.cv::Mat", align 8
  %3 = alloca [3 x %"class.cv::Mat"], align 16
  call void @llvm.lifetime.start.p0(i64 12, ptr nonnull %1) #7
  call void @llvm.memcpy.p0.p0.i64(ptr noundef nonnull align 1 dereferenceable(12) %1, ptr noundef nonnull align 1 dereferenceable(12) @__const.main.d, i64 12, i1 false)
  call void @llvm.lifetime.start.p0(i64 96, ptr nonnull %2) #7
  call void @_ZN2cv3MatC1EiiiPvm(ptr noundef nonnull align 8 dereferenceable(96) %2, i32 noundef 2, i32 noundef 2, i32 noundef 16, ptr noundef nonnull %1, i64 noundef 0)
  call void @llvm.lifetime.start.p0(i64 288, ptr nonnull %3) #7
  br label %4

4:                                                ; preds = %4, %0
  %.idx = phi i64 [ 0, %0 ], [ %.add, %4 ]
  %.ptr = getelementptr inbounds nuw i8, ptr %3, i64 %.idx
  call void @_ZN2cv3MatC1Ev(ptr noundef nonnull align 8 dereferenceable(96) %.ptr) #7
  %.add = add nuw nsw i64 %.idx, 96
  %5 = icmp eq i64 %.add, 288
  br i1 %5, label %6, label %4

6:                                                ; preds = %4
  %7 = getelementptr inbounds nuw i8, ptr %3, i64 288
  invoke void @_ZN2cv5splitERKNS_3MatEPS0_(ptr noundef nonnull align 8 dereferenceable(96) %2, ptr noundef nonnull %3)
          to label %.preheader unwind label %8

8:                                                ; preds = %6
  %9 = landingpad { ptr, i32 }
          cleanup
  br label %14

.preheader:                                       ; preds = %6, %.preheader
  %10 = phi ptr [ %11, %.preheader ], [ %7, %6 ]
  %11 = getelementptr inbounds i8, ptr %10, i64 -96
  call void @_ZN2cv3MatD1Ev(ptr noundef nonnull align 8 dereferenceable(96) %11) #7
  %12 = icmp eq ptr %11, %3
  br i1 %12, label %13, label %.preheader

13:                                               ; preds = %.preheader
  call void @llvm.lifetime.end.p0(i64 288, ptr nonnull %3) #7
  call void @_ZN2cv3MatD1Ev(ptr noundef nonnull align 8 dereferenceable(96) %2) #7
  call void @llvm.lifetime.end.p0(i64 96, ptr nonnull %2) #7
  call void @llvm.lifetime.end.p0(i64 12, ptr nonnull %1) #7
  ret i32 0

14:                                               ; preds = %14, %8
  %15 = phi ptr [ %7, %8 ], [ %16, %14 ]
  %16 = getelementptr inbounds i8, ptr %15, i64 -96
  call void @_ZN2cv3MatD1Ev(ptr noundef nonnull align 8 dereferenceable(96) %16) #7
  %17 = icmp eq ptr %16, %3
  br i1 %17, label %18, label %14

18:                                               ; preds = %14
  call void @llvm.lifetime.end.p0(i64 288, ptr nonnull %3) #7
  call void @_ZN2cv3MatD1Ev(ptr noundef nonnull align 8 dereferenceable(96) %2) #7
  call void @llvm.lifetime.end.p0(i64 96, ptr nonnull %2) #7
  call void @llvm.lifetime.end.p0(i64 12, ptr nonnull %1) #7
  resume { ptr, i32 } %9
}

; Function Attrs: mustprogress nocallback nofree nosync nounwind willreturn memory(argmem: readwrite)
declare void @llvm.lifetime.start.p0(i64 immarg, ptr captures(none)) #4

; Function Attrs: mustprogress nocallback nofree nounwind willreturn memory(argmem: readwrite)
declare void @llvm.memcpy.p0.p0.i64(ptr noalias writeonly captures(none), ptr noalias readonly captures(none), i64, i1 immarg) #5

declare void @_ZN2cv3MatC1EiiiPvm(ptr noundef nonnull align 8 dereferenceable(96), i32 noundef, i32 noundef, i32 noundef, ptr noundef, i64 noundef) unnamed_addr #0

; Function Attrs: nounwind
declare void @_ZN2cv3MatC1Ev(ptr noundef nonnull align 8 dereferenceable(96)) unnamed_addr #1

declare void @_ZN2cv5splitERKNS_3MatEPS0_(ptr noundef nonnull align 8 dereferenceable(96), ptr noundef) local_unnamed_addr #0

declare i32 @__gxx_personality_v0(...)

; Function Attrs: nounwind
declare void @_ZN2cv3MatD1Ev(ptr noundef nonnull align 8 dereferenceable(96)) unnamed_addr #1

; Function Attrs: mustprogress nocallback nofree nosync nounwind willreturn memory(argmem: readwrite)
declare void @llvm.lifetime.end.p0(i64 immarg, ptr captures(none)) #4

; Function Attrs: uwtable
define internal void @_GLOBAL__sub_I_core_split.cpp() #6 section ".text.startup" {
  tail call void @_ZNSt8ios_base4InitC1Ev(ptr noundef nonnull align 1 dereferenceable(1) @_ZStL8__ioinit)
  %1 = tail call i32 @__cxa_atexit(ptr nonnull @_ZNSt8ios_base4InitD1Ev, ptr nonnull @_ZStL8__ioinit, ptr nonnull @__dso_handle) #7
  ret void
}


!llvm.module.flags = !{!0, !1, !2, !3}

!0 = !{i32 1, !"wchar_size", i32 4}
!1 = !{i32 8, !"PIC Level", i32 2}
!2 = !{i32 7, !"PIE Level", i32 2}
!3 = !{i32 7, !"uwtable", i32 2}
